target datalayout = "e-m:e-p270:32:32-p271:32:32-p272:64:64-i64:64-i128:128-f80:128-n8:16:32:64-S128"
target triple = "x86_64-pc-linux-gnu"

%struct.pmix_value = type { i16, %union.anon }
%union.anon = type { %struct.pmix_envar_t }
%struct.pmix_envar_t = type { ptr, ptr, i8 }
%struct.pmix_info = type { [512 x i8], i32, %struct.pmix_value }

@.str.74 = private unnamed_addr constant [29 x i8] c"%sKEY: %s DIRECTIVES: %0x %s\00", align 1
@.str.75 = private unnamed_addr constant [17 x i8] c"PMIX_VALUE: NULL\00", align 1

; Function Attrs: nounwind uwtable
define i32 @pmix20_bfrop_print_info(ptr noundef %0, ptr noundef %1, ptr noundef %2, i16 noundef zeroext %3) #0 {
  %5 = alloca i32, align 4
  %6 = alloca ptr, align 8
  %7 = alloca ptr, align 8
  %8 = alloca ptr, align 8
  %9 = alloca i16, align 2
  %10 = alloca ptr, align 8
  %11 = alloca i32, align 4
  %12 = alloca i32, align 4
  store ptr %0, ptr %6, align 8, !tbaa !3
  store ptr %1, ptr %7, align 8, !tbaa !8
  store ptr %2, ptr %8, align 8, !tbaa !66
  store i16 %3, ptr %9, align 2, !tbaa !11
  call void @llvm.lifetime.start.p0(i64 8, ptr %10) #7
  call void @llvm.lifetime.start.p0(i64 4, ptr %11) #7
  %13 = load ptr, ptr %8, align 8, !tbaa !66
  %14 = getelementptr inbounds nuw %struct.pmix_info, ptr %13, i32 0, i32 2
  %15 = call i32 @pmix20_bfrop_print_value(ptr noundef %10, ptr noundef null, ptr noundef %14, i16 noundef zeroext 21)
  %16 = load ptr, ptr %6, align 8, !tbaa !3
  %17 = load ptr, ptr %7, align 8, !tbaa !8
  %18 = load ptr, ptr %8, align 8, !tbaa !66
  %19 = getelementptr inbounds nuw %struct.pmix_info, ptr %18, i32 0, i32 0
  %20 = getelementptr inbounds [512 x i8], ptr %19, i64 0, i64 0
  %21 = load ptr, ptr %8, align 8, !tbaa !66
  %22 = getelementptr inbounds nuw %struct.pmix_info, ptr %21, i32 0, i32 1
  %23 = load i32, ptr %22, align 8, !tbaa !68
  %24 = load ptr, ptr %10, align 8, !tbaa !8
  %25 = icmp eq ptr null, %24
  br i1 %25, label %26, label %27

26:                                               ; preds = %4
  br label %29

27:                                               ; preds = %4
  %28 = load ptr, ptr %10, align 8, !tbaa !8
  br label %29

29:                                               ; preds = %27, %26
  %30 = phi ptr [ @.str.75, %26 ], [ %28, %27 ]
  %31 = call i32 (ptr, ptr, ...) @asprintf(ptr noundef %16, ptr noundef @.str.74, ptr noundef %17, ptr noundef %20, i32 noundef %23, ptr noundef %30) #7
  store i32 %31, ptr %11, align 4, !tbaa !21
  %32 = load ptr, ptr %10, align 8, !tbaa !8
  %33 = icmp ne ptr null, %32
  br i1 %33, label %34, label %36

34:                                               ; preds = %29
  %35 = load ptr, ptr %10, align 8, !tbaa !8
  call void @free(ptr noundef %35) #7
  br label %36

36:                                               ; preds = %34, %29
  %37 = load i32, ptr %11, align 4, !tbaa !21
  %38 = icmp sgt i32 0, %37
  br i1 %38, label %39, label %40

39:                                               ; preds = %36
  store i32 -32, ptr %5, align 4
  store i32 1, ptr %12, align 4
  br label %41

40:                                               ; preds = %36
  store i32 0, ptr %5, align 4
  store i32 1, ptr %12, align 4
  br label %41

41:                                               ; preds = %40, %39
  call void @llvm.lifetime.end.p0(i64 4, ptr %11) #7
  call void @llvm.lifetime.end.p0(i64 8, ptr %10) #7
  %42 = load i32, ptr %5, align 4
  ret i32 %42
}