; Function Attrs: nounwind uwtable
define range(i32 -32, 1) i32 @pmix20_bfrop_print_info(ptr noundef %0, ptr noundef %1, ptr noundef %2, i16 noundef zeroext %3) local_unnamed_addr #0 {
  %5 = alloca ptr, align 8
  call void @llvm.lifetime.start.p0(i64 8, ptr nonnull %5) #7
  %6 = getelementptr inbounds nuw i8, ptr %2, i64 520
  %7 = call i32 @pmix20_bfrop_print_value(ptr noundef nonnull %5, ptr noundef null, ptr noundef nonnull %6, i16 zeroext poison)
  %8 = getelementptr inbounds nuw i8, ptr %2, i64 512
  %9 = load i32, ptr %8, align 8, !tbaa !48
  %10 = load ptr, ptr %5, align 8, !tbaa !20
  %11 = icmp eq ptr %10, null
  %12 = select i1 %11, ptr @.str.75, ptr %10
  %13 = call i32 (ptr, ptr, ...) @asprintf(ptr noundef %0, ptr noundef nonnull @.str.74, ptr noundef %1, ptr noundef %2, i32 noundef %9, ptr noundef nonnull %12) #7
  %14 = load ptr, ptr %5, align 8, !tbaa !20
  %.not = icmp eq ptr %14, null
  br i1 %.not, label %16, label %15

15:                                               ; preds = %4
  call void @free(ptr noundef nonnull %14) #7
  br label %16

16:                                               ; preds = %15, %4
  %17 = icmp slt i32 %13, 0
  %. = select i1 %17, i32 -32, i32 0
  call void @llvm.lifetime.end.p0(i64 8, ptr nonnull %5) #7
  ret i32 %.
}